target datalayout = "e-m:e-p270:32:32-p271:32:32-p272:64:64-i64:64-i128:128-f80:128-n8:16:32:64-S128"
target triple = "x86_64-pc-linux-gnu"

%struct.hwloc_topology = type { i32, i32, i32, ptr, ptr, i64, [20 x i32], [20 x i32], i64, i64, i32, ptr, i64, ptr, i64, [6 x %struct.hwloc_special_level_s], ptr, ptr, %struct.hwloc_binding_hooks, %struct.hwloc_topology_support, %struct.hwloc_infos_s, ptr, ptr, i32, ptr, ptr, i32, i32, ptr, i32, i32, ptr, i32, i32, i32, [5 x float], i32, ptr, ptr, i32, i32, ptr, i32, %struct.hwloc_numanode_attr_s, i32, i32, ptr, i64, i32, ptr, ptr, ptr }
%struct.hwloc_special_level_s = type { i32, ptr, ptr, ptr }
%struct.hwloc_binding_hooks = type { ptr, ptr, ptr, ptr, ptr, ptr, ptr, ptr, ptr, ptr, ptr, ptr, ptr, ptr, ptr, ptr, ptr, ptr, ptr, ptr, ptr, ptr, ptr, ptr }
%struct.hwloc_topology_support = type { ptr, ptr, ptr, ptr }
%struct.hwloc_infos_s = type { ptr, i32, i32 }
%struct.hwloc_numanode_attr_s = type { i64, i32, ptr }

; Function Attrs: nounwind uwtable
define hidden ptr @hwloc_alloc_heap(ptr noundef %0, i64 noundef %1) #0 {
  %3 = alloca ptr, align 8
  %4 = alloca i64, align 8
  %5 = alloca ptr, align 8
  store ptr %0, ptr %3, align 8, !tbaa !3
  store i64 %1, ptr %4, align 8, !tbaa !40
  call void @llvm.lifetime.start.p0(i64 8, ptr %5) #9
  store ptr null, ptr %5, align 8, !tbaa !48
  %6 = call i64 @sysconf(i32 noundef 30) #9
  %7 = load i64, ptr %4, align 8, !tbaa !40
  %8 = call i32 @posix_memalign(ptr noundef %5, i64 noundef %6, i64 noundef %7) #9
  %9 = call ptr @__errno_location() #8
  store i32 %8, ptr %9, align 4, !tbaa !10
  %10 = call ptr @__errno_location() #8
  %11 = load i32, ptr %10, align 4, !tbaa !10
  %12 = icmp ne i32 %11, 0
  br i1 %12, label %13, label %14

13:                                               ; preds = %2
  store ptr null, ptr %5, align 8, !tbaa !48
  br label %14

14:                                               ; preds = %13, %2
  %15 = load ptr, ptr %5, align 8, !tbaa !48
  call void @llvm.lifetime.end.p0(i64 8, ptr %5) #9
  ret ptr %15
}

; Function Attrs: nounwind uwtable
define ptr @hwloc_alloc(ptr noundef %0, i64 noundef %1) #0 {
  %3 = alloca ptr, align 8
  %4 = alloca ptr, align 8
  %5 = alloca i64, align 8
  store ptr %0, ptr %4, align 8, !tbaa !3
  store i64 %1, ptr %5, align 8, !tbaa !40
  %6 = load ptr, ptr %4, align 8, !tbaa !3
  %7 = getelementptr inbounds nuw %struct.hwloc_topology, ptr %6, i32 0, i32 18
  %8 = getelementptr inbounds nuw %struct.hwloc_binding_hooks, ptr %7, i32 0, i32 20
  %9 = load ptr, ptr %8, align 8, !tbaa !66
  %10 = icmp ne ptr %9, null
  br i1 %10, label %11, label %19

11:                                               ; preds = %2
  %12 = load ptr, ptr %4, align 8, !tbaa !3
  %13 = getelementptr inbounds nuw %struct.hwloc_topology, ptr %12, i32 0, i32 18
  %14 = getelementptr inbounds nuw %struct.hwloc_binding_hooks, ptr %13, i32 0, i32 20
  %15 = load ptr, ptr %14, align 8, !tbaa !66
  %16 = load ptr, ptr %4, align 8, !tbaa !3
  %17 = load i64, ptr %5, align 8, !tbaa !40
  %18 = call ptr %15(ptr noundef %16, i64 noundef %17)
  store ptr %18, ptr %3, align 8
  br label %23

19:                                               ; preds = %2
  %20 = load ptr, ptr %4, align 8, !tbaa !3
  %21 = load i64, ptr %5, align 8, !tbaa !40
  %22 = call ptr @hwloc_alloc_heap(ptr noundef %20, i64 noundef %21)
  store ptr %22, ptr %3, align 8
  br label %23

23:                                               ; preds = %19, %11
  %24 = load ptr, ptr %3, align 8
  ret ptr %24
}