; Function Attrs: nounwind uwtable
define ptr @hwloc_alloc(ptr noundef %0, i64 noundef %1) local_unnamed_addr #0 {
  %3 = alloca ptr, align 8
  %4 = getelementptr inbounds nuw i8, ptr %0, i64 624
  %5 = load ptr, ptr %4, align 8, !tbaa !65
  %.not = icmp eq ptr %5, null
  br i1 %.not, label %8, label %6

6:                                                ; preds = %2
  %7 = tail call ptr %5(ptr noundef nonnull %0, i64 noundef %1) #14
  br label %13

8:                                                ; preds = %2
  call void @llvm.lifetime.start.p0(i64 8, ptr nonnull %3) #14
  store ptr null, ptr %3, align 8, !tbaa !64
  %9 = tail call i64 @sysconf(i32 noundef 30) #14
  %10 = call i32 @posix_memalign(ptr noundef nonnull %3, i64 noundef %9, i64 noundef %1) #14
  %11 = tail call ptr @__errno_location() #12
  store i32 %10, ptr %11, align 4, !tbaa !3
  %.not.i = icmp eq i32 %10, 0
  %.pre.i = load ptr, ptr %3, align 8
  %12 = select i1 %.not.i, ptr %.pre.i, ptr null
  call void @llvm.lifetime.end.p0(i64 8, ptr nonnull %3) #14
  br label %13

13:                                               ; preds = %8, %6
  %.0 = phi ptr [ %7, %6 ], [ %12, %8 ]
  ret ptr %.0
}